; Function Attrs: mustprogress uwtable
define void @_ZN12colvarmodule14set_error_bitsEi(i32 noundef %0) local_unnamed_addr #3 align 2 personality ptr @__gxx_personality_v0 {
  %2 = alloca %"class.std::__cxx11::basic_string", align 8
  %3 = alloca %"class.std::allocator", align 1
  %4 = icmp slt i32 %0, 0
  br i1 %4, label %5, label %14

5:                                                ; preds = %1
  call void @_ZNSaIcEC1Ev(ptr noundef nonnull align 1 dereferenceable(1) %3) #24
  %6 = invoke noundef ptr @_ZNSt7__cxx1112basic_stringIcSt11char_traitsIcESaIcEE13_M_local_dataEv(ptr noundef nonnull align 8 dereferenceable(32) %2)
          to label %.noexc unwind label %10

.noexc:                                           ; preds = %5
  invoke void @_ZNSt7__cxx1112basic_stringIcSt11char_traitsIcESaIcEE12_Alloc_hiderC1EPcRKS3_(ptr noundef nonnull align 8 dereferenceable(8) %2, ptr noundef %6, ptr noundef nonnull align 1 dereferenceable(1) %3)
          to label %.noexc6 unwind label %10

.noexc6:                                          ; preds = %.noexc
  invoke void @_ZNSt7__cxx1112basic_stringIcSt11char_traitsIcESaIcEE12_M_constructIPKcEEvT_S8_St20forward_iterator_tag(ptr noundef nonnull align 8 dereferenceable(32) %2, ptr noundef nonnull @.str.159, ptr noundef nonnull getelementptr inbounds ([55 x i8], ptr @.str.159, i64 0, i64 54))
          to label %_ZNSt7__cxx1112basic_stringIcSt11char_traitsIcESaIcEEC2IS3_EEPKcRKS3_.exit unwind label %7

7:                                                ; preds = %.noexc6
  %8 = landingpad { ptr, i32 }
          cleanup
  call void @_ZNSaIcED2Ev(ptr noundef nonnull align 1 dereferenceable(1) %2) #24
  br label %.body

_ZNSt7__cxx1112basic_stringIcSt11char_traitsIcESaIcEEC2IS3_EEPKcRKS3_.exit: ; preds = %.noexc6
  invoke void @_ZN12colvarmodule3logERKNSt7__cxx1112basic_stringIcSt11char_traitsIcESaIcEEEi(ptr noundef nonnull align 8 dereferenceable(32) %2, i32 noundef 10)
          to label %9 unwind label %12

9:                                                ; preds = %_ZNSt7__cxx1112basic_stringIcSt11char_traitsIcESaIcEEC2IS3_EEPKcRKS3_.exit
  call void @_ZNSt7__cxx1112basic_stringIcSt11char_traitsIcESaIcEED1Ev(ptr noundef nonnull align 8 dereferenceable(32) %2) #24
  call void @_ZNSaIcED1Ev(ptr noundef nonnull align 1 dereferenceable(1) %3) #24
  br label %30

10:                                               ; preds = %.noexc, %5
  %11 = landingpad { ptr, i32 }
          cleanup
  br label %.body

12:                                               ; preds = %_ZNSt7__cxx1112basic_stringIcSt11char_traitsIcESaIcEEC2IS3_EEPKcRKS3_.exit
  %13 = landingpad { ptr, i32 }
          cleanup
  call void @_ZNSt7__cxx1112basic_stringIcSt11char_traitsIcESaIcEED1Ev(ptr noundef nonnull align 8 dereferenceable(32) %2) #24
  br label %.body

.body:                                            ; preds = %10, %7, %12
  %.pn = phi { ptr, i32 } [ %13, %12 ], [ %11, %10 ], [ %8, %7 ]
  call void @_ZNSaIcED1Ev(ptr noundef nonnull align 1 dereferenceable(1) %3) #24
  resume { ptr, i32 } %.pn

14:                                               ; preds = %1
  %15 = load ptr, ptr @_ZN12colvarmodule5proxyE, align 8
  %16 = getelementptr inbounds i8, ptr %15, i64 768
  %17 = load ptr, ptr %16, align 8
  %18 = getelementptr inbounds i8, ptr %17, i64 64
  %19 = load ptr, ptr %18, align 8
  %20 = tail call noundef i32 %19(ptr noundef nonnull align 8 dereferenceable(24) %16)
  %21 = load i32, ptr @_ZN12colvarmodule9errorCodeE, align 4
  %22 = or i32 %21, %0
  %23 = or i32 %22, 1
  store i32 %23, ptr @_ZN12colvarmodule9errorCodeE, align 4
  %24 = load ptr, ptr @_ZN12colvarmodule5proxyE, align 8
  %25 = getelementptr inbounds i8, ptr %24, i64 768
  %26 = load ptr, ptr %25, align 8
  %27 = getelementptr inbounds i8, ptr %26, i64 80
  %28 = load ptr, ptr %27, align 8
  %29 = tail call noundef i32 %28(ptr noundef nonnull align 8 dereferenceable(24) %25)
  br label %30

30:                                               ; preds = %14, %9
  ret void
}